; Function Attrs: mustprogress uwtable
define dso_local noundef zeroext i1 @_ZN11SafeOpFlags17return_float_typeEPK4TypeS2_S2_10eBinaryOps(ptr noundef readonly captures(address_is_null) %0, ptr noundef readonly captures(address_is_null) %1, ptr noundef readonly captures(address_is_null) %2, i32 noundef %3) local_unnamed_addr #7 align 2 {
  %5 = tail call noundef zeroext i1 @_ZN9CGOptions12enable_floatEv()
  br i1 %5, label %6, label %32

6:                                                ; preds = %4
  %.not = icmp eq ptr %0, null
  br i1 %.not, label %14, label %7

7:                                                ; preds = %6
  %8 = load i32, ptr %0, align 8, !tbaa !30
  %9 = icmp eq i32 %8, 0
  %10 = getelementptr inbounds nuw i8, ptr %0, i64 16
  %11 = load i32, ptr %10, align 8
  %12 = icmp eq i32 %11, 10
  %13 = select i1 %9, i1 %12, i1 false
  br i1 %13, label %32, label %14

14:                                               ; preds = %7, %6
  %.not10 = icmp eq ptr %1, null
  br i1 %.not10, label %22, label %15

15:                                               ; preds = %14
  %16 = load i32, ptr %1, align 8, !tbaa !30
  %17 = icmp eq i32 %16, 0
  %18 = getelementptr inbounds nuw i8, ptr %1, i64 16
  %19 = load i32, ptr %18, align 8
  %20 = icmp eq i32 %19, 10
  %21 = select i1 %17, i1 %20, i1 false
  br i1 %21, label %32, label %22

22:                                               ; preds = %15, %14
  %.not11 = icmp eq ptr %2, null
  br i1 %.not11, label %30, label %23

23:                                               ; preds = %22
  %24 = load i32, ptr %2, align 8, !tbaa !30
  %25 = icmp eq i32 %24, 0
  %26 = getelementptr inbounds nuw i8, ptr %2, i64 16
  %27 = load i32, ptr %26, align 8
  %28 = icmp eq i32 %27, 10
  %29 = select i1 %25, i1 %28, i1 false
  br i1 %29, label %32, label %30

30:                                               ; preds = %23, %22
  %31 = tail call noundef zeroext i1 @_ZN18FunctionInvocation21BinaryOpWorksForFloatE10eBinaryOps(i32 noundef %3)
  br label %32

32:                                               ; preds = %15, %23, %7, %4, %30
  %.0 = phi i1 [ false, %30 ], [ false, %4 ], [ true, %7 ], [ true, %23 ], [ true, %15 ]
  ret i1 %.0
}